target datalayout = "e-m:e-p270:32:32-p271:32:32-p272:64:64-i64:64-i128:128-f80:128-n8:16:32:64-S128"
target triple = "x86_64-pc-linux-gnu"

%"class.llvm::FoldingSetBase" = type { ptr, i32, i32 }

; Function Attrs: mustprogress nounwind uwtable
define dso_local void @_ZN4llvm14FoldingSetBase5clearEv(ptr noundef nonnull align 8 dereferenceable(16) %0) #0 align 2 {
  %2 = alloca ptr, align 8
  store ptr %0, ptr %2, align 8
  %3 = load ptr, ptr %2, align 8
  %4 = getelementptr inbounds nuw %"class.llvm::FoldingSetBase", ptr %3, i32 0, i32 0
  %5 = load ptr, ptr %4, align 8
  %6 = getelementptr inbounds nuw %"class.llvm::FoldingSetBase", ptr %3, i32 0, i32 1
  %7 = load i32, ptr %6, align 8
  %8 = zext i32 %7 to i64
  %9 = mul i64 %8, 8
  call void @llvm.memset.p0.i64(ptr align 8 %5, i8 0, i64 %9, i1 false)
  %10 = getelementptr inbounds nuw %"class.llvm::FoldingSetBase", ptr %3, i32 0, i32 0
  %11 = load ptr, ptr %10, align 8
  %12 = getelementptr inbounds nuw %"class.llvm::FoldingSetBase", ptr %3, i32 0, i32 1
  %13 = load i32, ptr %12, align 8
  %14 = zext i32 %13 to i64
  %15 = getelementptr inbounds ptr, ptr %11, i64 %14
  store ptr inttoptr (i64 -1 to ptr), ptr %15, align 8
  %16 = getelementptr inbounds nuw %"class.llvm::FoldingSetBase", ptr %3, i32 0, i32 2
  store i32 0, ptr %16, align 4
  ret void
}