; Function Attrs: mustprogress nofree norecurse nosync nounwind willreturn memory(write, argmem: readwrite, inaccessiblemem: none) uwtable
define dso_local void @_ZN4llvm14FoldingSetBase5clearEv(ptr nocapture noundef nonnull align 8 dereferenceable(16) %0) local_unnamed_addr #8 align 2 {
  %2 = load ptr, ptr %0, align 8
  %3 = getelementptr inbounds nuw i8, ptr %0, i64 8
  %4 = load i32, ptr %3, align 8
  %5 = zext i32 %4 to i64
  %6 = shl nuw nsw i64 %5, 3
  tail call void @llvm.memset.p0.i64(ptr align 8 %2, i8 0, i64 %6, i1 false)
  %7 = load ptr, ptr %0, align 8
  %8 = load i32, ptr %3, align 8
  %9 = zext i32 %8 to i64
  %10 = getelementptr inbounds ptr, ptr %7, i64 %9
  store ptr inttoptr (i64 -1 to ptr), ptr %10, align 8
  %11 = getelementptr inbounds nuw i8, ptr %0, i64 12
  store i32 0, ptr %11, align 4
  ret void
}